; Function Attrs: mustprogress uwtable
define internal void @"_ZNSt17_Function_handlerIFvjRKN3sat3cutEEZNS0_8aig_cuts17set_on_clause_addERSt8functionIFvRK7svectorINS0_7literalEjEEEE3$_0E9_M_invokeERKSt9_Any_dataOjS3_"(ptr nocapture noundef nonnull readonly align 8 dereferenceable(16) %__functor, ptr nocapture noundef nonnull readonly align 4 dereferenceable(4) %__args, ptr noundef nonnull align 8 dereferenceable(48) %__args1) #3 align 2 {
entry:
  %call.val = load ptr, ptr %__functor, align 8
  %__args.val = load i32, ptr %__args, align 4
  %m_on_clause_add.i.i.i = getelementptr inbounds i8, ptr %call.val, i64 224
  %shl.i.i.i.i = shl i32 %__args.val, 1
  tail call void @_ZN3sat8aig_cuts7cut2defERSt8functionIFvRK7svectorINS_7literalEjEEERKNS_3cutES3_(ptr noundef nonnull align 8 dereferenceable(480) %call.val, ptr noundef nonnull align 8 dereferenceable(32) %m_on_clause_add.i.i.i, ptr noundef nonnull align 8 dereferenceable(48) %__args1, i32 %shl.i.i.i.i)
  ret void
}